target datalayout = "e-m:e-p270:32:32-p271:32:32-p272:64:64-i64:64-i128:128-f80:128-n8:16:32:64-S128"
target triple = "x86_64-pc-linux-gnu"

%"class.cv::aruco::ArucoDetector" = type { %"class.cv::Algorithm", %"struct.cv::Ptr" }
%"class.cv::Algorithm" = type { ptr }
%"struct.cv::Ptr" = type { %"class.std::shared_ptr" }
%"class.std::shared_ptr" = type { %"class.std::__shared_ptr" }
%"class.std::__shared_ptr" = type { ptr, %"class.std::__shared_count" }
%"class.std::__shared_count" = type { ptr }
%"struct.cv::aruco::RefineParameters" = type <{ float, float, i8, [3 x i8] }>
%"class.std::__shared_ptr.6" = type { ptr, %"class.std::__shared_count" }
%"class.std::__shared_ptr.10" = type { ptr, %"class.std::__shared_count" }

; Function Attrs: mustprogress nounwind uwtable
define linkonce_odr hidden noundef ptr @_ZNKSt12__shared_ptrIN2cv5aruco18DetectorParametersELN9__gnu_cxx12_Lock_policyE2EE3getEv(ptr noundef nonnull align 8 dereferenceable(16) %0) #6 comdat align 2 {
  %2 = alloca ptr, align 8
  store ptr %0, ptr %2, align 8, !tbaa !156
  %3 = load ptr, ptr %2, align 8
  %4 = getelementptr inbounds nuw %"class.std::__shared_ptr.6", ptr %3, i32 0, i32 0
  %5 = load ptr, ptr %4, align 8, !tbaa !158
  ret ptr %5
}

; Function Attrs: mustprogress nounwind uwtable
define linkonce_odr hidden noundef ptr @_ZNKSt12__shared_ptrIN2cv5aruco5BoardELN9__gnu_cxx12_Lock_policyE2EE3getEv(ptr noundef nonnull align 8 dereferenceable(16) %0) #6 comdat align 2 {
  %2 = alloca ptr, align 8
  store ptr %0, ptr %2, align 8, !tbaa !161
  %3 = load ptr, ptr %2, align 8
  %4 = getelementptr inbounds nuw %"class.std::__shared_ptr.10", ptr %3, i32 0, i32 0
  %5 = load ptr, ptr %4, align 8, !tbaa !163
  ret ptr %5
}

; Function Attrs: mustprogress nounwind uwtable
define linkonce_odr hidden noundef nonnull align 8 dereferenceable(16) ptr @_ZNK2cv3PtrINS_5aruco5BoardEEdeEv(ptr noundef nonnull align 8 dereferenceable(16) %0) #6 comdat align 2 {
  %2 = alloca ptr, align 8
  store ptr %0, ptr %2, align 8, !tbaa !18
  %3 = load ptr, ptr %2, align 8
  %4 = call noundef ptr @_ZNKSt12__shared_ptrIN2cv5aruco5BoardELN9__gnu_cxx12_Lock_policyE2EE3getEv(ptr noundef nonnull align 8 dereferenceable(16) %3) #3
  ret ptr %4
}

; Function Attrs: mustprogress nounwind uwtable
define linkonce_odr hidden noundef nonnull align 8 dereferenceable(188) ptr @_ZNK2cv3PtrINS_5aruco18DetectorParametersEEdeEv(ptr noundef nonnull align 8 dereferenceable(16) %0) #6 comdat align 2 {
  %2 = alloca ptr, align 8
  store ptr %0, ptr %2, align 8, !tbaa !12
  %3 = load ptr, ptr %2, align 8
  %4 = call noundef ptr @_ZNKSt12__shared_ptrIN2cv5aruco18DetectorParametersELN9__gnu_cxx12_Lock_policyE2EE3getEv(ptr noundef nonnull align 8 dereferenceable(16) %3) #3
  ret ptr %4
}

; Function Attrs: mustprogress nounwind uwtable
define linkonce_odr hidden noundef ptr @_ZNK2cv3PtrINS_5aruco5BoardEEptEv(ptr noundef nonnull align 8 dereferenceable(16) %0) #6 comdat align 2 {
  %2 = alloca ptr, align 8
  store ptr %0, ptr %2, align 8, !tbaa !18
  %3 = load ptr, ptr %2, align 8
  %4 = call noundef ptr @_ZNKSt12__shared_ptrIN2cv5aruco5BoardELN9__gnu_cxx12_Lock_policyE2EE3getEv(ptr noundef nonnull align 8 dereferenceable(16) %3) #3
  ret ptr %4
}

; Function Attrs: mustprogress uwtable
define void @_ZN2cv5aruco21refineDetectedMarkersERKNS_11_InputArrayERKNS_3PtrINS0_5BoardEEERKNS_17_InputOutputArrayESB_SB_S3_S3_ffbRKNS_12_OutputArrayERKNS4_INS0_18DetectorParametersEEE(ptr noundef nonnull align 8 dereferenceable(24) %0, ptr noundef nonnull align 8 dereferenceable(16) %1, ptr noundef nonnull align 8 dereferenceable(24) %2, ptr noundef nonnull align 8 dereferenceable(24) %3, ptr noundef nonnull align 8 dereferenceable(24) %4, ptr noundef nonnull align 8 dereferenceable(24) %5, ptr noundef nonnull align 8 dereferenceable(24) %6, float noundef %7, float noundef %8, i1 noundef zeroext %9, ptr noundef nonnull align 8 dereferenceable(24) %10, ptr noundef nonnull align 8 dereferenceable(16) %11) #4 personality ptr @__gxx_personality_v0 {
  %13 = alloca ptr, align 8
  %14 = alloca ptr, align 8
  %15 = alloca ptr, align 8
  %16 = alloca ptr, align 8
  %17 = alloca ptr, align 8
  %18 = alloca ptr, align 8
  %19 = alloca ptr, align 8
  %20 = alloca float, align 4
  %21 = alloca float, align 4
  %22 = alloca i8, align 1
  %23 = alloca ptr, align 8
  %24 = alloca ptr, align 8
  %25 = alloca %"struct.cv::aruco::RefineParameters", align 4
  %26 = alloca %"class.cv::aruco::ArucoDetector", align 8
  %27 = alloca ptr, align 8
  %28 = alloca i32, align 4
  store ptr %0, ptr %13, align 8, !tbaa !3
  store ptr %1, ptr %14, align 8, !tbaa !18
  store ptr %2, ptr %15, align 8, !tbaa !20
  store ptr %3, ptr %16, align 8, !tbaa !20
  store ptr %4, ptr %17, align 8, !tbaa !20
  store ptr %5, ptr %18, align 8, !tbaa !3
  store ptr %6, ptr %19, align 8, !tbaa !3
  store float %7, ptr %20, align 4, !tbaa !22
  store float %8, ptr %21, align 4, !tbaa !22
  %29 = zext i1 %9 to i8
  store i8 %29, ptr %22, align 1, !tbaa !24
  store ptr %10, ptr %23, align 8, !tbaa !10
  store ptr %11, ptr %24, align 8, !tbaa !12
  call void @llvm.lifetime.start.p0(i64 12, ptr %25) #3
  %30 = load float, ptr %20, align 4, !tbaa !22
  %31 = load float, ptr %21, align 4, !tbaa !22
  %32 = load i8, ptr %22, align 1, !tbaa !24, !range !26, !noundef !27
  %33 = trunc i8 %32 to i1
  call void @_ZN2cv5aruco16RefineParametersC1Effb(ptr noundef nonnull align 4 dereferenceable(9) %25, float noundef %30, float noundef %31, i1 noundef zeroext %33)
  call void @llvm.lifetime.start.p0(i64 24, ptr %26) #3
  %34 = load ptr, ptr %14, align 8, !tbaa !18
  %35 = call noundef ptr @_ZNK2cv3PtrINS_5aruco5BoardEEptEv(ptr noundef nonnull align 8 dereferenceable(16) %34) #3
  %36 = call noundef nonnull align 8 dereferenceable(104) ptr @_ZNK2cv5aruco5Board13getDictionaryEv(ptr noundef nonnull align 8 dereferenceable(16) %35)
  %37 = load ptr, ptr %24, align 8, !tbaa !12
  %38 = call noundef nonnull align 8 dereferenceable(188) ptr @_ZNK2cv3PtrINS_5aruco18DetectorParametersEEdeEv(ptr noundef nonnull align 8 dereferenceable(16) %37) #3
  call void @_ZN2cv5aruco13ArucoDetectorC1ERKNS0_10DictionaryERKNS0_18DetectorParametersERKNS0_16RefineParametersE(ptr noundef nonnull align 8 dereferenceable(24) %26, ptr noundef nonnull align 8 dereferenceable(104) %36, ptr noundef nonnull align 8 dereferenceable(188) %38, ptr noundef nonnull align 4 dereferenceable(9) %25)
  %39 = load ptr, ptr %13, align 8, !tbaa !3
  %40 = load ptr, ptr %14, align 8, !tbaa !18
  %41 = call noundef nonnull align 8 dereferenceable(16) ptr @_ZNK2cv3PtrINS_5aruco5BoardEEdeEv(ptr noundef nonnull align 8 dereferenceable(16) %40) #3
  %42 = load ptr, ptr %15, align 8, !tbaa !20
  %43 = load ptr, ptr %16, align 8, !tbaa !20
  %44 = load ptr, ptr %17, align 8, !tbaa !20
  %45 = load ptr, ptr %18, align 8, !tbaa !3
  %46 = load ptr, ptr %19, align 8, !tbaa !3
  %47 = load ptr, ptr %23, align 8, !tbaa !10
  invoke void @_ZNK2cv5aruco13ArucoDetector21refineDetectedMarkersERKNS_11_InputArrayERKNS0_5BoardERKNS_17_InputOutputArrayESA_SA_S4_S4_RKNS_12_OutputArrayE(ptr noundef nonnull align 8 dereferenceable(24) %26, ptr noundef nonnull align 8 dereferenceable(24) %39, ptr noundef nonnull align 8 dereferenceable(16) %41, ptr noundef nonnull align 8 dereferenceable(24) %42, ptr noundef nonnull align 8 dereferenceable(24) %43, ptr noundef nonnull align 8 dereferenceable(24) %44, ptr noundef nonnull align 8 dereferenceable(24) %45, ptr noundef nonnull align 8 dereferenceable(24) %46, ptr noundef nonnull align 8 dereferenceable(24) %47)
          to label %48 unwind label %49

48:                                               ; preds = %12
  call void @_ZN2cv5aruco13ArucoDetectorD2Ev(ptr noundef nonnull align 8 dereferenceable(24) %26) #3
  call void @llvm.lifetime.end.p0(i64 24, ptr %26) #3
  call void @llvm.lifetime.end.p0(i64 12, ptr %25) #3
  ret void

49:                                               ; preds = %12
  %50 = landingpad { ptr, i32 }
          cleanup
  %51 = extractvalue { ptr, i32 } %50, 0
  store ptr %51, ptr %27, align 8
  %52 = extractvalue { ptr, i32 } %50, 1
  store i32 %52, ptr %28, align 4
  call void @_ZN2cv5aruco13ArucoDetectorD2Ev(ptr noundef nonnull align 8 dereferenceable(24) %26) #3
  call void @llvm.lifetime.end.p0(i64 24, ptr %26) #3
  call void @llvm.lifetime.end.p0(i64 12, ptr %25) #3
  br label %53

53:                                               ; preds = %49
  %54 = load ptr, ptr %27, align 8
  %55 = load i32, ptr %28, align 4
  %56 = insertvalue { ptr, i32 } poison, ptr %54, 0
  %57 = insertvalue { ptr, i32 } %56, i32 %55, 1
  resume { ptr, i32 } %57
}