; Function Attrs: mustprogress uwtable
define void @_ZN2cv5aruco21refineDetectedMarkersERKNS_11_InputArrayERKNS_3PtrINS0_5BoardEEERKNS_17_InputOutputArrayESB_SB_S3_S3_ffbRKNS_12_OutputArrayERKNS4_INS0_18DetectorParametersEEE(ptr noundef nonnull align 8 dereferenceable(24) %0, ptr noundef nonnull readonly align 8 captures(none) dereferenceable(16) %1, ptr noundef nonnull align 8 dereferenceable(24) %2, ptr noundef nonnull align 8 dereferenceable(24) %3, ptr noundef nonnull align 8 dereferenceable(24) %4, ptr noundef nonnull align 8 dereferenceable(24) %5, ptr noundef nonnull align 8 dereferenceable(24) %6, float noundef %7, float noundef %8, i1 noundef zeroext %9, ptr noundef nonnull align 8 dereferenceable(24) %10, ptr noundef nonnull readonly align 8 captures(none) dereferenceable(16) %11) local_unnamed_addr #3 personality ptr @__gxx_personality_v0 {
  %13 = alloca %"struct.cv::aruco::RefineParameters", align 4
  %14 = alloca %"class.cv::aruco::ArucoDetector", align 8
  call void @llvm.lifetime.start.p0(i64 12, ptr nonnull %13) #20
  call void @_ZN2cv5aruco16RefineParametersC1Effb(ptr noundef nonnull align 4 dereferenceable(9) %13, float noundef %7, float noundef %8, i1 noundef zeroext %9)
  call void @llvm.lifetime.start.p0(i64 24, ptr nonnull %14) #20
  %15 = load ptr, ptr %1, align 8, !tbaa !24
  %16 = call noundef nonnull align 8 dereferenceable(104) ptr @_ZNK2cv5aruco5Board13getDictionaryEv(ptr noundef nonnull align 8 dereferenceable(16) %15)
  %17 = load ptr, ptr %11, align 8, !tbaa !11
  call void @_ZN2cv5aruco13ArucoDetectorC1ERKNS0_10DictionaryERKNS0_18DetectorParametersERKNS0_16RefineParametersE(ptr noundef nonnull align 8 dereferenceable(24) %14, ptr noundef nonnull align 8 dereferenceable(104) %16, ptr noundef nonnull align 8 dereferenceable(188) %17, ptr noundef nonnull align 4 dereferenceable(9) %13)
  %18 = load ptr, ptr %1, align 8, !tbaa !24
  invoke void @_ZNK2cv5aruco13ArucoDetector21refineDetectedMarkersERKNS_11_InputArrayERKNS0_5BoardERKNS_17_InputOutputArrayESA_SA_S4_S4_RKNS_12_OutputArrayE(ptr noundef nonnull align 8 dereferenceable(24) %14, ptr noundef nonnull align 8 dereferenceable(24) %0, ptr noundef nonnull align 8 dereferenceable(16) %18, ptr noundef nonnull align 8 dereferenceable(24) %2, ptr noundef nonnull align 8 dereferenceable(24) %3, ptr noundef nonnull align 8 dereferenceable(24) %4, ptr noundef nonnull align 8 dereferenceable(24) %5, ptr noundef nonnull align 8 dereferenceable(24) %6, ptr noundef nonnull align 8 dereferenceable(24) %10)
          to label %19 unwind label %43

19:                                               ; preds = %12
  store ptr getelementptr inbounds nuw inrange(-16, 64) (i8, ptr @_ZTVN2cv5aruco13ArucoDetectorE, i64 16), ptr %14, align 8, !tbaa !14
  %20 = getelementptr inbounds nuw i8, ptr %14, i64 16
  %21 = load ptr, ptr %20, align 8, !tbaa !16
  %.not.i.i.i = icmp eq ptr %21, null
  br i1 %.not.i.i.i, label %_ZN2cv5aruco13ArucoDetectorD2Ev.exit, label %22

22:                                               ; preds = %19
  %23 = getelementptr inbounds nuw i8, ptr %21, i64 8
  %24 = load atomic i64, ptr %23 acquire, align 8
  %25 = icmp eq i64 %24, 4294967297
  %26 = trunc i64 %24 to i32
  br i1 %25, label %27, label %35

27:                                               ; preds = %22
  store i32 0, ptr %23, align 8, !tbaa !17
  %28 = getelementptr inbounds nuw i8, ptr %21, i64 12
  store i32 0, ptr %28, align 4, !tbaa !20
  %29 = load ptr, ptr %21, align 8, !tbaa !14
  %30 = getelementptr inbounds nuw i8, ptr %29, i64 16
  %31 = load ptr, ptr %30, align 8
  call void %31(ptr noundef nonnull align 8 dereferenceable(16) %21) #20
  %32 = load ptr, ptr %21, align 8, !tbaa !14
  %33 = getelementptr inbounds nuw i8, ptr %32, i64 24
  %34 = load ptr, ptr %33, align 8
  call void %34(ptr noundef nonnull align 8 dereferenceable(16) %21) #20
  br label %_ZN2cv5aruco13ArucoDetectorD2Ev.exit

35:                                               ; preds = %22
  %36 = load i8, ptr @__libc_single_threaded, align 1, !tbaa !21
  %.not.i.i.i.i = icmp eq i8 %36, 0
  br i1 %.not.i.i.i.i, label %39, label %37

37:                                               ; preds = %35
  %38 = add nsw i32 %26, -1
  store i32 %38, ptr %23, align 4, !tbaa !22
  br label %_ZN9__gnu_cxx27__exchange_and_add_dispatchEPii.exit.i.i.i.i

39:                                               ; preds = %35
  %40 = atomicrmw volatile add ptr %23, i32 -1 acq_rel, align 4
  br label %_ZN9__gnu_cxx27__exchange_and_add_dispatchEPii.exit.i.i.i.i

_ZN9__gnu_cxx27__exchange_and_add_dispatchEPii.exit.i.i.i.i: ; preds = %39, %37
  %.0.i.i.i.i.i = phi i32 [ %26, %37 ], [ %40, %39 ]
  %41 = icmp eq i32 %.0.i.i.i.i.i, 1
  br i1 %41, label %42, label %_ZN2cv5aruco13ArucoDetectorD2Ev.exit, !prof !23

42:                                               ; preds = %_ZN9__gnu_cxx27__exchange_and_add_dispatchEPii.exit.i.i.i.i
  call void @_ZNSt16_Sp_counted_baseILN9__gnu_cxx12_Lock_policyE2EE24_M_release_last_use_coldEv(ptr noundef nonnull align 8 dereferenceable(16) %21) #20
  br label %_ZN2cv5aruco13ArucoDetectorD2Ev.exit

_ZN2cv5aruco13ArucoDetectorD2Ev.exit:             ; preds = %19, %27, %_ZN9__gnu_cxx27__exchange_and_add_dispatchEPii.exit.i.i.i.i, %42
  call void @_ZN2cv9AlgorithmD2Ev(ptr noundef nonnull align 8 dereferenceable(24) %14) #20
  call void @llvm.lifetime.end.p0(i64 24, ptr nonnull %14) #20
  call void @llvm.lifetime.end.p0(i64 12, ptr nonnull %13) #20
  ret void

43:                                               ; preds = %12
  %44 = landingpad { ptr, i32 }
          cleanup
  call void @_ZN2cv5aruco13ArucoDetectorD2Ev(ptr noundef nonnull align 8 dereferenceable(24) %14) #20
  call void @llvm.lifetime.end.p0(i64 24, ptr nonnull %14) #20
  call void @llvm.lifetime.end.p0(i64 12, ptr nonnull %13) #20
  resume { ptr, i32 } %44
}